; Function Attrs: uwtable
define noundef double @_ZTv0_n144_NK29colvarbias_restraint_harmonic24d_restraint_potential_dkEm(ptr nocapture noundef readonly %0, i64 noundef %1) unnamed_addr #3 align 2 {
  %3 = load ptr, ptr %0, align 8
  %4 = getelementptr inbounds i8, ptr %3, i64 -144
  %5 = load i64, ptr %4, align 8
  %6 = getelementptr inbounds i8, ptr %0, i64 %5
  %7 = load ptr, ptr %6, align 8
  %8 = getelementptr i8, ptr %7, i64 -24
  %9 = load i64, ptr %8, align 8
  %10 = getelementptr inbounds i8, ptr %6, i64 %9
  %11 = getelementptr inbounds i8, ptr %10, i64 152
  %sext.i = shl i64 %1, 32
  %12 = ashr exact i64 %sext.i, 32
  %13 = load ptr, ptr %11, align 8
  %14 = getelementptr inbounds ptr, ptr %13, i64 %12
  %15 = load ptr, ptr %14, align 8
  %16 = getelementptr inbounds i8, ptr %15, i64 472
  %17 = load double, ptr %16, align 8
  %18 = fmul double %17, %17
  %19 = fdiv double 5.000000e-01, %18
  %20 = getelementptr inbounds i8, ptr %15, i64 672
  %21 = getelementptr i8, ptr %7, i64 -152
  %22 = load i64, ptr %21, align 8
  %23 = getelementptr inbounds i8, ptr %6, i64 %22
  %24 = getelementptr inbounds i8, ptr %23, i64 8
  %25 = load ptr, ptr %24, align 8
  %26 = getelementptr inbounds %class.colvarvalue, ptr %25, i64 %1
  %27 = tail call noundef double @_ZNK6colvar5dist2ERK11colvarvalueS2_(ptr noundef nonnull align 8 dereferenceable(4624) %15, ptr noundef nonnull align 8 dereferenceable(168) %20, ptr noundef nonnull align 8 dereferenceable(168) %26)
  %28 = fmul double %19, %27
  ret double %28
}